
a.out:     file format elf64-x86-64


Disassembly of section .init:

0000000000001000 <_init>:
    1000:	48 83 ec 08          	sub    $0x8,%rsp
    1004:	48 8b 05 dd 2f 00 00 	mov    0x2fdd(%rip),%rax        # 3fe8 <__gmon_start__>
    100b:	48 85 c0             	test   %rax,%rax
    100e:	74 02                	je     1012 <_init+0x12>
    1010:	ff d0                	callq  *%rax
    1012:	48 83 c4 08          	add    $0x8,%rsp
    1016:	c3                   	retq   

Disassembly of section .plt:

0000000000001020 <.plt>:
    1020:	ff 35 e2 2f 00 00    	pushq  0x2fe2(%rip)        # 4008 <_GLOBAL_OFFSET_TABLE_+0x8>
    1026:	ff 25 e4 2f 00 00    	jmpq   *0x2fe4(%rip)        # 4010 <_GLOBAL_OFFSET_TABLE_+0x10>
    102c:	0f 1f 40 00          	nopl   0x0(%rax)

0000000000001030 <__stack_chk_fail@plt>:
    1030:	ff 25 e2 2f 00 00    	jmpq   *0x2fe2(%rip)        # 4018 <__stack_chk_fail@GLIBC_2.4>
    1036:	68 00 00 00 00       	pushq  $0x0
    103b:	e9 e0 ff ff ff       	jmpq   1020 <.plt>

0000000000001040 <printf@plt>:
    1040:	ff 25 da 2f 00 00    	jmpq   *0x2fda(%rip)        # 4020 <printf@GLIBC_2.2.5>
    1046:	68 01 00 00 00       	pushq  $0x1
    104b:	e9 d0 ff ff ff       	jmpq   1020 <.plt>

0000000000001050 <__isoc99_scanf@plt>:
    1050:	ff 25 d2 2f 00 00    	jmpq   *0x2fd2(%rip)        # 4028 <__isoc99_scanf@GLIBC_2.7>
    1056:	68 02 00 00 00       	pushq  $0x2
    105b:	e9 c0 ff ff ff       	jmpq   1020 <.plt>

Disassembly of section .plt.got:

0000000000001060 <__cxa_finalize@plt>:
    1060:	ff 25 92 2f 00 00    	jmpq   *0x2f92(%rip)        # 3ff8 <__cxa_finalize@GLIBC_2.2.5>
    1066:	66 90                	xchg   %ax,%ax

Disassembly of section .text:

0000000000001070 <_start>:
    1070:	31 ed                	xor    %ebp,%ebp
    1072:	49 89 d1             	mov    %rdx,%r9
    1075:	5e                   	pop    %rsi
    1076:	48 89 e2             	mov    %rsp,%rdx
    1079:	48 83 e4 f0          	and    $0xfffffffffffffff0,%rsp
    107d:	50                   	push   %rax
    107e:	54                   	push   %rsp
    107f:	4c 8d 05 ea 02 00 00 	lea    0x2ea(%rip),%r8        # 1370 <__libc_csu_fini>
    1086:	48 8d 0d 83 02 00 00 	lea    0x283(%rip),%rcx        # 1310 <__libc_csu_init>
    108d:	48 8d 3d c1 00 00 00 	lea    0xc1(%rip),%rdi        # 1155 <main>
    1094:	ff 15 46 2f 00 00    	callq  *0x2f46(%rip)        # 3fe0 <__libc_start_main@GLIBC_2.2.5>
    109a:	f4                   	hlt    
    109b:	0f 1f 44 00 00       	nopl   0x0(%rax,%rax,1)

00000000000010a0 <deregister_tm_clones>:
    10a0:	48 8d 3d 99 2f 00 00 	lea    0x2f99(%rip),%rdi        # 4040 <__TMC_END__>
    10a7:	48 8d 05 92 2f 00 00 	lea    0x2f92(%rip),%rax        # 4040 <__TMC_END__>
    10ae:	48 39 f8             	cmp    %rdi,%rax
    10b1:	74 15                	je     10c8 <deregister_tm_clones+0x28>
    10b3:	48 8b 05 1e 2f 00 00 	mov    0x2f1e(%rip),%rax        # 3fd8 <_ITM_deregisterTMCloneTable>
    10ba:	48 85 c0             	test   %rax,%rax
    10bd:	74 09                	je     10c8 <deregister_tm_clones+0x28>
    10bf:	ff e0                	jmpq   *%rax
    10c1:	0f 1f 80 00 00 00 00 	nopl   0x0(%rax)
    10c8:	c3                   	retq   
    10c9:	0f 1f 80 00 00 00 00 	nopl   0x0(%rax)

00000000000010d0 <register_tm_clones>:
    10d0:	48 8d 3d 69 2f 00 00 	lea    0x2f69(%rip),%rdi        # 4040 <__TMC_END__>
    10d7:	48 8d 35 62 2f 00 00 	lea    0x2f62(%rip),%rsi        # 4040 <__TMC_END__>
    10de:	48 29 fe             	sub    %rdi,%rsi
    10e1:	48 89 f0             	mov    %rsi,%rax
    10e4:	48 c1 ee 3f          	shr    $0x3f,%rsi
    10e8:	48 c1 f8 03          	sar    $0x3,%rax
    10ec:	48 01 c6             	add    %rax,%rsi
    10ef:	48 d1 fe             	sar    %rsi
    10f2:	74 14                	je     1108 <register_tm_clones+0x38>
    10f4:	48 8b 05 f5 2e 00 00 	mov    0x2ef5(%rip),%rax        # 3ff0 <_ITM_registerTMCloneTable>
    10fb:	48 85 c0             	test   %rax,%rax
    10fe:	74 08                	je     1108 <register_tm_clones+0x38>
    1100:	ff e0                	jmpq   *%rax
    1102:	66 0f 1f 44 00 00    	nopw   0x0(%rax,%rax,1)
    1108:	c3                   	retq   
    1109:	0f 1f 80 00 00 00 00 	nopl   0x0(%rax)

0000000000001110 <__do_global_dtors_aux>:
    1110:	80 3d 29 2f 00 00 00 	cmpb   $0x0,0x2f29(%rip)        # 4040 <__TMC_END__>
    1117:	75 2f                	jne    1148 <__do_global_dtors_aux+0x38>
    1119:	55                   	push   %rbp
    111a:	48 83 3d d6 2e 00 00 	cmpq   $0x0,0x2ed6(%rip)        # 3ff8 <__cxa_finalize@GLIBC_2.2.5>
    1121:	00 
    1122:	48 89 e5             	mov    %rsp,%rbp
    1125:	74 0c                	je     1133 <__do_global_dtors_aux+0x23>
    1127:	48 8b 3d 0a 2f 00 00 	mov    0x2f0a(%rip),%rdi        # 4038 <__dso_handle>
    112e:	e8 2d ff ff ff       	callq  1060 <__cxa_finalize@plt>
    1133:	e8 68 ff ff ff       	callq  10a0 <deregister_tm_clones>
    1138:	c6 05 01 2f 00 00 01 	movb   $0x1,0x2f01(%rip)        # 4040 <__TMC_END__>
    113f:	5d                   	pop    %rbp
    1140:	c3                   	retq   
    1141:	0f 1f 80 00 00 00 00 	nopl   0x0(%rax)
    1148:	c3                   	retq   
    1149:	0f 1f 80 00 00 00 00 	nopl   0x0(%rax)

0000000000001150 <frame_dummy>:
    1150:	e9 7b ff ff ff       	jmpq   10d0 <register_tm_clones>

0000000000001155 <main>:
    1155:	55                   	push   %rbp
    1156:	48 89 e5             	mov    %rsp,%rbp
    1159:	48 83 ec 70          	sub    $0x70,%rsp
    115d:	64 48 8b 04 25 28 00 	mov    %fs:0x28,%rax
    1164:	00 00 
    1166:	48 89 45 f8          	mov    %rax,-0x8(%rbp)
    116a:	31 c0                	xor    %eax,%eax
    116c:	c7 45 b0 00 00 00 00 	movl   $0x0,-0x50(%rbp)
    1173:	c6 45 9f 01          	movb   $0x1,-0x61(%rbp)
    1177:	48 c7 45 c0 00 00 00 	movq   $0x0,-0x40(%rbp)
    117e:	00 
    117f:	48 c7 45 c8 00 00 00 	movq   $0x0,-0x38(%rbp)
    1186:	00 
    1187:	48 c7 45 d0 00 00 00 	movq   $0x0,-0x30(%rbp)
    118e:	00 
    118f:	48 c7 45 d8 00 00 00 	movq   $0x0,-0x28(%rbp)
    1196:	00 
    1197:	48 c7 45 e0 00 00 00 	movq   $0x0,-0x20(%rbp)
    119e:	00 
    119f:	48 c7 45 e8 00 00 00 	movq   $0x0,-0x18(%rbp)
    11a6:	00 
    11a7:	48 8d 3d 5a 0e 00 00 	lea    0xe5a(%rip),%rdi        # 2008 <_IO_stdin_used+0x8>
    11ae:	b8 00 00 00 00       	mov    $0x0,%eax
    11b3:	e8 88 fe ff ff       	callq  1040 <printf@plt>
    11b8:	48 8d 45 a4          	lea    -0x5c(%rbp),%rax
    11bc:	48 89 c6             	mov    %rax,%rsi
    11bf:	48 8d 3d 82 0e 00 00 	lea    0xe82(%rip),%rdi        # 2048 <_IO_stdin_used+0x48>
    11c6:	b8 00 00 00 00       	mov    $0x0,%eax
    11cb:	e8 80 fe ff ff       	callq  1050 <__isoc99_scanf@plt>
    11d0:	c7 45 b4 00 00 00 00 	movl   $0x0,-0x4c(%rbp)
    11d7:	eb 4d                	jmp    1226 <main+0xd1>
    11d9:	48 8d 45 a0          	lea    -0x60(%rbp),%rax
    11dd:	48 89 c6             	mov    %rax,%rsi
    11e0:	48 8d 3d 61 0e 00 00 	lea    0xe61(%rip),%rdi        # 2048 <_IO_stdin_used+0x48>
    11e7:	b8 00 00 00 00       	mov    $0x0,%eax
    11ec:	e8 5f fe ff ff       	callq  1050 <__isoc99_scanf@plt>
    11f1:	f3 0f 10 45 a0       	movss  -0x60(%rbp),%xmm0
    11f6:	0f 2f 45 a8          	comiss -0x58(%rbp),%xmm0
    11fa:	76 0c                	jbe    1208 <main+0xb3>
    11fc:	f3 0f 10 45 a0       	movss  -0x60(%rbp),%xmm0
    1201:	f3 0f 11 45 a8       	movss  %xmm0,-0x58(%rbp)
    1206:	eb 04                	jmp    120c <main+0xb7>
    1208:	c6 45 9f 00          	movb   $0x0,-0x61(%rbp)
    120c:	f3 0f 10 45 a0       	movss  -0x60(%rbp),%xmm0
    1211:	f3 0f 2c d0          	cvttss2si %xmm0,%edx
    1215:	8b 45 b0             	mov    -0x50(%rbp),%eax
    1218:	48 98                	cltq   
    121a:	89 54 85 c0          	mov    %edx,-0x40(%rbp,%rax,4)
    121e:	83 45 b0 01          	addl   $0x1,-0x50(%rbp)
    1222:	83 45 b4 01          	addl   $0x1,-0x4c(%rbp)
    1226:	66 0f ef c9          	pxor   %xmm1,%xmm1
    122a:	f3 0f 2a 4d b4       	cvtsi2ssl -0x4c(%rbp),%xmm1
    122f:	f3 0f 10 45 a4       	movss  -0x5c(%rbp),%xmm0
    1234:	0f 2f c1             	comiss %xmm1,%xmm0
    1237:	77 a0                	ja     11d9 <main+0x84>
    1239:	c7 45 b8 00 00 00 00 	movl   $0x0,-0x48(%rbp)
    1240:	eb 39                	jmp    127b <main+0x126>
    1242:	8b 45 b8             	mov    -0x48(%rbp),%eax
    1245:	89 c6                	mov    %eax,%esi
    1247:	48 8d 3d fd 0d 00 00 	lea    0xdfd(%rip),%rdi        # 204b <_IO_stdin_used+0x4b>
    124e:	b8 00 00 00 00       	mov    $0x0,%eax
    1253:	e8 e8 fd ff ff       	callq  1040 <printf@plt>
    1258:	8b 45 b8             	mov    -0x48(%rbp),%eax
    125b:	48 98                	cltq   
    125d:	8b 44 85 c0          	mov    -0x40(%rbp,%rax,4),%eax
    1261:	66 0f ef c0          	pxor   %xmm0,%xmm0
    1265:	f3 0f 2a c0          	cvtsi2ss %eax,%xmm0
    1269:	f3 0f 10 4d ac       	movss  -0x54(%rbp),%xmm1
    126e:	f3 0f 58 c1          	addss  %xmm1,%xmm0
    1272:	f3 0f 11 45 ac       	movss  %xmm0,-0x54(%rbp)
    1277:	83 45 b8 01          	addl   $0x1,-0x48(%rbp)
    127b:	8b 45 b8             	mov    -0x48(%rbp),%eax
    127e:	3b 45 b0             	cmp    -0x50(%rbp),%eax
    1281:	7e bf                	jle    1242 <main+0xed>
    1283:	f3 0f 10 4d a4       	movss  -0x5c(%rbp),%xmm1
    1288:	f3 0f 10 45 ac       	movss  -0x54(%rbp),%xmm0
    128d:	f3 0f 5e c1          	divss  %xmm1,%xmm0
    1291:	f3 0f 11 45 bc       	movss  %xmm0,-0x44(%rbp)
    1296:	0f b6 45 9f          	movzbl -0x61(%rbp),%eax
    129a:	83 f0 01             	xor    $0x1,%eax
    129d:	84 c0                	test   %al,%al
    129f:	74 26                	je     12c7 <main+0x172>
    12a1:	66 0f ef d2          	pxor   %xmm2,%xmm2
    12a5:	f3 0f 5a 55 bc       	cvtss2sd -0x44(%rbp),%xmm2
    12aa:	66 48 0f 7e d0       	movq   %xmm2,%rax
    12af:	66 48 0f 6e c0       	movq   %rax,%xmm0
    12b4:	48 8d 3d 9d 0d 00 00 	lea    0xd9d(%rip),%rdi        # 2058 <_IO_stdin_used+0x58>
    12bb:	b8 01 00 00 00       	mov    $0x1,%eax
    12c0:	e8 7b fd ff ff       	callq  1040 <printf@plt>
    12c5:	eb 24                	jmp    12eb <main+0x196>
    12c7:	66 0f ef db          	pxor   %xmm3,%xmm3
    12cb:	f3 0f 5a 5d bc       	cvtss2sd -0x44(%rbp),%xmm3
    12d0:	66 48 0f 7e d8       	movq   %xmm3,%rax
    12d5:	66 48 0f 6e c0       	movq   %rax,%xmm0
    12da:	48 8d 3d 99 0d 00 00 	lea    0xd99(%rip),%rdi        # 207a <_IO_stdin_used+0x7a>
    12e1:	b8 01 00 00 00       	mov    $0x1,%eax
    12e6:	e8 55 fd ff ff       	callq  1040 <printf@plt>
    12eb:	b8 00 00 00 00       	mov    $0x0,%eax
    12f0:	48 8b 4d f8          	mov    -0x8(%rbp),%rcx
    12f4:	64 48 2b 0c 25 28 00 	sub    %fs:0x28,%rcx
    12fb:	00 00 
    12fd:	74 05                	je     1304 <main+0x1af>
    12ff:	e8 2c fd ff ff       	callq  1030 <__stack_chk_fail@plt>
    1304:	c9                   	leaveq 
    1305:	c3                   	retq   
    1306:	66 2e 0f 1f 84 00 00 	nopw   %cs:0x0(%rax,%rax,1)
    130d:	00 00 00 

0000000000001310 <__libc_csu_init>:
    1310:	41 57                	push   %r15
    1312:	4c 8d 3d bf 2a 00 00 	lea    0x2abf(%rip),%r15        # 3dd8 <__frame_dummy_init_array_entry>
    1319:	41 56                	push   %r14
    131b:	49 89 d6             	mov    %rdx,%r14
    131e:	41 55                	push   %r13
    1320:	49 89 f5             	mov    %rsi,%r13
    1323:	41 54                	push   %r12
    1325:	41 89 fc             	mov    %edi,%r12d
    1328:	55                   	push   %rbp
    1329:	48 8d 2d b0 2a 00 00 	lea    0x2ab0(%rip),%rbp        # 3de0 <__do_global_dtors_aux_fini_array_entry>
    1330:	53                   	push   %rbx
    1331:	4c 29 fd             	sub    %r15,%rbp
    1334:	48 83 ec 08          	sub    $0x8,%rsp
    1338:	e8 c3 fc ff ff       	callq  1000 <_init>
    133d:	48 c1 fd 03          	sar    $0x3,%rbp
    1341:	74 1b                	je     135e <__libc_csu_init+0x4e>
    1343:	31 db                	xor    %ebx,%ebx
    1345:	0f 1f 00             	nopl   (%rax)
    1348:	4c 89 f2             	mov    %r14,%rdx
    134b:	4c 89 ee             	mov    %r13,%rsi
    134e:	44 89 e7             	mov    %r12d,%edi
    1351:	41 ff 14 df          	callq  *(%r15,%rbx,8)
    1355:	48 83 c3 01          	add    $0x1,%rbx
    1359:	48 39 dd             	cmp    %rbx,%rbp
    135c:	75 ea                	jne    1348 <__libc_csu_init+0x38>
    135e:	48 83 c4 08          	add    $0x8,%rsp
    1362:	5b                   	pop    %rbx
    1363:	5d                   	pop    %rbp
    1364:	41 5c                	pop    %r12
    1366:	41 5d                	pop    %r13
    1368:	41 5e                	pop    %r14
    136a:	41 5f                	pop    %r15
    136c:	c3                   	retq   
    136d:	0f 1f 00             	nopl   (%rax)

0000000000001370 <__libc_csu_fini>:
    1370:	c3                   	retq   

Disassembly of section .fini:

0000000000001374 <_fini>:
    1374:	48 83 ec 08          	sub    $0x8,%rsp
    1378:	48 83 c4 08          	add    $0x8,%rsp
    137c:	c3                   	retq   
